target datalayout = "e-m:e-p270:32:32-p271:32:32-p272:64:64-i64:64-i128:128-f80:128-n8:16:32:64-S128"
target triple = "x86_64-pc-linux-gnu"

%struct.strbuf = type { i64, i64, ptr }
%struct.string_list_item = type { ptr, ptr }
%struct.rename_info = type { ptr, ptr, ptr, i32 }

@the_repository = external global ptr, align 8
@__const.read_remote_branches.buf = private unnamed_addr constant %struct.strbuf { i64 0, i64 0, ptr @strbuf_slopbuf }, align 8
@.str.83 = private unnamed_addr constant [17 x i8] c"refs/remotes/%s/\00", align 1

; Function Attrs: nounwind uwtable
define internal i32 @read_remote_branches(ptr noundef %0, ptr noundef %1, ptr noundef %2, i32 noundef %3, ptr noundef %4) #0 {
  %6 = alloca ptr, align 8
  %7 = alloca ptr, align 8
  %8 = alloca ptr, align 8
  %9 = alloca i32, align 4
  %10 = alloca ptr, align 8
  %11 = alloca ptr, align 8
  %12 = alloca %struct.strbuf, align 8
  %13 = alloca ptr, align 8
  %14 = alloca i32, align 4
  %15 = alloca ptr, align 8
  store ptr %0, ptr %6, align 8, !tbaa !11
  store ptr %1, ptr %7, align 8, !tbaa !11
  store ptr %2, ptr %8, align 8, !tbaa !142
  store i32 %3, ptr %9, align 4, !tbaa !4
  store ptr %4, ptr %10, align 8, !tbaa !15
  call void @llvm.lifetime.start.p0(i64 8, ptr %11) #11
  %16 = load ptr, ptr %10, align 8, !tbaa !15
  store ptr %16, ptr %11, align 8, !tbaa !144
  call void @llvm.lifetime.start.p0(i64 24, ptr %12) #11
  call void @llvm.memcpy.p0.p0.i64(ptr align 8 %12, ptr align 8 @__const.read_remote_branches.buf, i64 24, i1 false)
  call void @llvm.lifetime.start.p0(i64 8, ptr %13) #11
  call void @llvm.lifetime.start.p0(i64 4, ptr %14) #11
  call void @llvm.lifetime.start.p0(i64 8, ptr %15) #11
  %17 = load ptr, ptr %11, align 8, !tbaa !144
  %18 = getelementptr inbounds nuw %struct.rename_info, ptr %17, i32 0, i32 0
  %19 = load ptr, ptr %18, align 8, !tbaa !44
  call void (ptr, ptr, ...) @strbuf_addf(ptr noundef %12, ptr noundef @.str.83, ptr noundef %19)
  %20 = load ptr, ptr %6, align 8, !tbaa !11
  %21 = getelementptr inbounds nuw %struct.strbuf, ptr %12, i32 0, i32 2
  %22 = load ptr, ptr %21, align 8, !tbaa !35
  %23 = call i32 @starts_with(ptr noundef %20, ptr noundef %22)
  %24 = icmp ne i32 %23, 0
  br i1 %24, label %25, label %54

25:                                               ; preds = %5
  %26 = load ptr, ptr %11, align 8, !tbaa !144
  %27 = getelementptr inbounds nuw %struct.rename_info, ptr %26, i32 0, i32 2
  %28 = load ptr, ptr %27, align 8, !tbaa !48
  %29 = load ptr, ptr %6, align 8, !tbaa !11
  %30 = call ptr @string_list_append(ptr noundef %28, ptr noundef %29)
  store ptr %30, ptr %13, align 8, !tbaa !62
  %31 = load ptr, ptr @the_repository, align 8, !tbaa !13
  %32 = call ptr @get_main_ref_store(ptr noundef %31)
  %33 = load ptr, ptr %6, align 8, !tbaa !11
  %34 = call ptr @refs_resolve_ref_unsafe(ptr noundef %32, ptr noundef %33, i32 noundef 1, ptr noundef null, ptr noundef %14)
  store ptr %34, ptr %15, align 8, !tbaa !11
  %35 = load ptr, ptr %15, align 8, !tbaa !11
  %36 = icmp ne ptr %35, null
  br i1 %36, label %37, label %50

37:                                               ; preds = %25
  %38 = load i32, ptr %14, align 4, !tbaa !4
  %39 = and i32 %38, 1
  %40 = icmp ne i32 %39, 0
  br i1 %40, label %41, label %50

41:                                               ; preds = %37
  %42 = load ptr, ptr %15, align 8, !tbaa !11
  %43 = call ptr @xstrdup(ptr noundef %42)
  %44 = load ptr, ptr %13, align 8, !tbaa !62
  %45 = getelementptr inbounds nuw %struct.string_list_item, ptr %44, i32 0, i32 1
  store ptr %43, ptr %45, align 8, !tbaa !63
  %46 = load ptr, ptr %11, align 8, !tbaa !144
  %47 = getelementptr inbounds nuw %struct.rename_info, ptr %46, i32 0, i32 3
  %48 = load i32, ptr %47, align 8, !tbaa !49
  %49 = add i32 %48, 1
  store i32 %49, ptr %47, align 8, !tbaa !49
  br label %53

50:                                               ; preds = %37, %25
  %51 = load ptr, ptr %13, align 8, !tbaa !62
  %52 = getelementptr inbounds nuw %struct.string_list_item, ptr %51, i32 0, i32 1
  store ptr null, ptr %52, align 8, !tbaa !63
  br label %53

53:                                               ; preds = %50, %41
  br label %54

54:                                               ; preds = %53, %5
  call void @strbuf_release(ptr noundef %12)
  call void @llvm.lifetime.end.p0(i64 8, ptr %15) #11
  call void @llvm.lifetime.end.p0(i64 4, ptr %14) #11
  call void @llvm.lifetime.end.p0(i64 8, ptr %13) #11
  call void @llvm.lifetime.end.p0(i64 24, ptr %12) #11
  call void @llvm.lifetime.end.p0(i64 8, ptr %11) #11
  ret i32 0
}