; Function Attrs: nounwind uwtable
define internal noundef i32 @read_remote_branches(ptr noundef %0, ptr readnone captures(none) %1, ptr readnone captures(none) %2, i32 %3, ptr noundef captures(none) %4) #0 {
  %6 = alloca %struct.strbuf, align 8
  %7 = alloca i32, align 4
  call void @llvm.lifetime.start.p0(i64 24, ptr nonnull %6) #19
  call void @llvm.memcpy.p0.p0.i64(ptr noundef nonnull align 8 dereferenceable(24) %6, ptr noundef nonnull align 8 dereferenceable(24) @__const.get_one_entry.promisor_config, i64 24, i1 false)
  call void @llvm.lifetime.start.p0(i64 4, ptr nonnull %7) #19
  %8 = load ptr, ptr %4, align 8, !tbaa !40
  call void (ptr, ptr, ...) @strbuf_addf(ptr noundef nonnull %6, ptr noundef nonnull @.str.83, ptr noundef %8) #19
  %9 = getelementptr inbounds nuw i8, ptr %6, i64 16
  %10 = load ptr, ptr %9, align 8, !tbaa !24
  %11 = call i32 @starts_with(ptr noundef %0, ptr noundef %10) #19
  %.not = icmp eq i32 %11, 0
  br i1 %.not, label %30, label %12

12:                                               ; preds = %5
  %13 = getelementptr inbounds nuw i8, ptr %4, i64 16
  %14 = load ptr, ptr %13, align 8, !tbaa !44
  %15 = call ptr @string_list_append(ptr noundef %14, ptr noundef %0) #19
  %16 = load ptr, ptr @the_repository, align 8, !tbaa !26
  %17 = call ptr @get_main_ref_store(ptr noundef %16) #19
  %18 = call ptr @refs_resolve_ref_unsafe(ptr noundef %17, ptr noundef %0, i32 noundef 1, ptr noundef null, ptr noundef nonnull %7) #19
  %.not11 = icmp eq ptr %18, null
  br i1 %.not11, label %28, label %19

19:                                               ; preds = %12
  %20 = load i32, ptr %7, align 4, !tbaa !21
  %21 = and i32 %20, 1
  %.not12 = icmp eq i32 %21, 0
  br i1 %.not12, label %28, label %22

22:                                               ; preds = %19
  %23 = call ptr @xstrdup(ptr noundef nonnull %18) #19
  %24 = getelementptr inbounds nuw i8, ptr %15, i64 8
  store ptr %23, ptr %24, align 8, !tbaa !67
  %25 = getelementptr inbounds nuw i8, ptr %4, i64 24
  %26 = load i32, ptr %25, align 8, !tbaa !45
  %27 = add i32 %26, 1
  store i32 %27, ptr %25, align 8, !tbaa !45
  br label %30

28:                                               ; preds = %19, %12
  %29 = getelementptr inbounds nuw i8, ptr %15, i64 8
  store ptr null, ptr %29, align 8, !tbaa !67
  br label %30

30:                                               ; preds = %22, %28, %5
  call void @strbuf_release(ptr noundef nonnull %6) #19
  call void @llvm.lifetime.end.p0(i64 4, ptr nonnull %7) #19
  call void @llvm.lifetime.end.p0(i64 24, ptr nonnull %6) #19
  ret i32 0
}